target datalayout = "e-m:e-p270:32:32-p271:32:32-p272:64:64-i64:64-i128:128-f80:128-n8:16:32:64-S128"
target triple = "x86_64-pc-linux-gnu"

%struct.Vec_Int_t_ = type { i32, i32, ptr }
%struct.Vec_Bit_t_ = type { i32, i32, ptr }

; Function Attrs: nounwind uwtable
define internal ptr @Vec_IntEntryP(ptr noundef %0, i32 noundef %1) #0 {
  %3 = alloca ptr, align 8
  %4 = alloca i32, align 4
  store ptr %0, ptr %3, align 8
  store i32 %1, ptr %4, align 4
  %5 = load ptr, ptr %3, align 8
  %6 = getelementptr inbounds %struct.Vec_Int_t_, ptr %5, i32 0, i32 2
  %7 = load ptr, ptr %6, align 8
  %8 = load i32, ptr %4, align 4
  %9 = sext i32 %8 to i64
  %10 = getelementptr inbounds i32, ptr %7, i64 %9
  ret ptr %10
}

; Function Attrs: nounwind uwtable
define internal void @Acec_SignSetBit2(ptr noundef %0, i32 noundef %1, i32 noundef %2, i32 noundef %3) #0 {
  %5 = alloca ptr, align 8
  %6 = alloca i32, align 4
  %7 = alloca i32, align 4
  %8 = alloca i32, align 4
  store ptr %0, ptr %5, align 8
  store i32 %1, ptr %6, align 4
  store i32 %2, ptr %7, align 4
  store i32 %3, ptr %8, align 4
  %9 = load i32, ptr %8, align 4
  %10 = icmp ne i32 %9, 0
  br i1 %10, label %11, label %22

11:                                               ; preds = %4
  %12 = load i32, ptr %7, align 4
  %13 = add nsw i32 16, %12
  %14 = shl i32 1, %13
  %15 = load ptr, ptr %5, align 8
  %16 = load i32, ptr %6, align 4
  %17 = mul nsw i32 6, %16
  %18 = add nsw i32 %17, 5
  %19 = call ptr @Vec_IntEntryP(ptr noundef %15, i32 noundef %18)
  %20 = load i32, ptr %19, align 4
  %21 = or i32 %20, %14
  store i32 %21, ptr %19, align 4
  br label %22

22:                                               ; preds = %11, %4
  ret void
}

; Function Attrs: nounwind uwtable
define internal i32 @Acec_SignBit(ptr noundef %0, i32 noundef %1, i32 noundef %2) #0 {
  %4 = alloca ptr, align 8
  %5 = alloca i32, align 4
  %6 = alloca i32, align 4
  store ptr %0, ptr %4, align 8
  store i32 %1, ptr %5, align 4
  store i32 %2, ptr %6, align 4
  %7 = load ptr, ptr %4, align 8
  %8 = load i32, ptr %5, align 4
  %9 = mul nsw i32 6, %8
  %10 = add nsw i32 %9, 5
  %11 = call i32 @Vec_IntEntry(ptr noundef %7, i32 noundef %10)
  %12 = load i32, ptr %6, align 4
  %13 = ashr i32 %11, %12
  %14 = and i32 %13, 1
  ret i32 %14
}

; Function Attrs: nounwind uwtable
define internal void @Vec_BitWriteEntry(ptr noundef %0, i32 noundef %1, i32 noundef %2) #0 {
  %4 = alloca ptr, align 8
  %5 = alloca i32, align 4
  %6 = alloca i32, align 4
  store ptr %0, ptr %4, align 8
  store i32 %1, ptr %5, align 4
  store i32 %2, ptr %6, align 4
  %7 = load i32, ptr %6, align 4
  %8 = icmp eq i32 %7, 1
  br i1 %8, label %9, label %22

9:                                                ; preds = %3
  %10 = load i32, ptr %5, align 4
  %11 = and i32 %10, 31
  %12 = shl i32 1, %11
  %13 = load ptr, ptr %4, align 8
  %14 = getelementptr inbounds %struct.Vec_Bit_t_, ptr %13, i32 0, i32 2
  %15 = load ptr, ptr %14, align 8
  %16 = load i32, ptr %5, align 4
  %17 = ashr i32 %16, 5
  %18 = sext i32 %17 to i64
  %19 = getelementptr inbounds i32, ptr %15, i64 %18
  %20 = load i32, ptr %19, align 4
  %21 = or i32 %20, %12
  store i32 %21, ptr %19, align 4
  br label %41

22:                                               ; preds = %3
  %23 = load i32, ptr %6, align 4
  %24 = icmp eq i32 %23, 0
  br i1 %24, label %25, label %39

25:                                               ; preds = %22
  %26 = load i32, ptr %5, align 4
  %27 = and i32 %26, 31
  %28 = shl i32 1, %27
  %29 = xor i32 %28, -1
  %30 = load ptr, ptr %4, align 8
  %31 = getelementptr inbounds %struct.Vec_Bit_t_, ptr %30, i32 0, i32 2
  %32 = load ptr, ptr %31, align 8
  %33 = load i32, ptr %5, align 4
  %34 = ashr i32 %33, 5
  %35 = sext i32 %34 to i64
  %36 = getelementptr inbounds i32, ptr %32, i64 %35
  %37 = load i32, ptr %36, align 4
  %38 = and i32 %37, %29
  store i32 %38, ptr %36, align 4
  br label %40

39:                                               ; preds = %22
  br label %40

40:                                               ; preds = %39, %25
  br label %41

41:                                               ; preds = %40, %9
  ret void
}

; Function Attrs: nounwind uwtable
define internal i32 @Vec_BitEntry(ptr noundef %0, i32 noundef %1) #0 {
  %3 = alloca ptr, align 8
  %4 = alloca i32, align 4
  store ptr %0, ptr %3, align 8
  store i32 %1, ptr %4, align 4
  %5 = load ptr, ptr %3, align 8
  %6 = getelementptr inbounds %struct.Vec_Bit_t_, ptr %5, i32 0, i32 2
  %7 = load ptr, ptr %6, align 8
  %8 = load i32, ptr %4, align 4
  %9 = ashr i32 %8, 5
  %10 = sext i32 %9 to i64
  %11 = getelementptr inbounds i32, ptr %7, i64 %10
  %12 = load i32, ptr %11, align 4
  %13 = load i32, ptr %4, align 4
  %14 = and i32 %13, 31
  %15 = ashr i32 %12, %14
  %16 = and i32 %15, 1
  ret i32 %16
}

; Function Attrs: nounwind uwtable
define internal i32 @Vec_IntEntry(ptr noundef %0, i32 noundef %1) #0 {
  %3 = alloca ptr, align 8
  %4 = alloca i32, align 4
  store ptr %0, ptr %3, align 8
  store i32 %1, ptr %4, align 4
  %5 = load ptr, ptr %3, align 8
  %6 = getelementptr inbounds %struct.Vec_Int_t_, ptr %5, i32 0, i32 2
  %7 = load ptr, ptr %6, align 8
  %8 = load i32, ptr %4, align 4
  %9 = sext i32 %8 to i64
  %10 = getelementptr inbounds i32, ptr %7, i64 %9
  %11 = load i32, ptr %10, align 4
  ret i32 %11
}

; Function Attrs: nounwind uwtable
define void @Acec_TreePhases_rec(ptr noundef %0, ptr noundef %1, ptr noundef %2, i32 noundef %3, i32 noundef %4, ptr noundef %5) #0 {
  %7 = alloca ptr, align 8
  %8 = alloca ptr, align 8
  %9 = alloca ptr, align 8
  %10 = alloca i32, align 4
  %11 = alloca i32, align 4
  %12 = alloca ptr, align 8
  %13 = alloca i32, align 4
  %14 = alloca i32, align 4
  %15 = alloca i32, align 4
  %16 = alloca i32, align 4
  %17 = alloca i32, align 4
  %18 = alloca i32, align 4
  store ptr %0, ptr %7, align 8
  store ptr %1, ptr %8, align 8
  store ptr %2, ptr %9, align 8
  store i32 %3, ptr %10, align 4
  store i32 %4, ptr %11, align 4
  store ptr %5, ptr %12, align 8
  %19 = load ptr, ptr %9, align 8
  %20 = load i32, ptr %10, align 4
  %21 = call i32 @Vec_IntEntry(ptr noundef %19, i32 noundef %20)
  store i32 %21, ptr %14, align 4
  %22 = load i32, ptr %14, align 4
  %23 = icmp eq i32 %22, -1
  br i1 %23, label %24, label %25

24:                                               ; preds = %6
  br label %104

25:                                               ; preds = %6
  %26 = load ptr, ptr %12, align 8
  %27 = load i32, ptr %14, align 4
  %28 = call i32 @Vec_BitEntry(ptr noundef %26, i32 noundef %27)
  %29 = icmp ne i32 %28, 0
  br i1 %29, label %30, label %31

30:                                               ; preds = %25
  br label %104

31:                                               ; preds = %25
  %32 = load ptr, ptr %12, align 8
  %33 = load i32, ptr %14, align 4
  call void @Vec_BitWriteEntry(ptr noundef %32, i32 noundef %33, i32 noundef 1)
  %34 = load ptr, ptr %8, align 8
  %35 = load i32, ptr %14, align 4
  %36 = mul nsw i32 6, %35
  %37 = add nsw i32 %36, 3
  %38 = call i32 @Vec_IntEntry(ptr noundef %34, i32 noundef %37)
  store i32 %38, ptr %15, align 4
  %39 = load ptr, ptr %8, align 8
  %40 = load i32, ptr %14, align 4
  %41 = call i32 @Acec_SignBit(ptr noundef %39, i32 noundef %40, i32 noundef 3)
  store i32 %41, ptr %16, align 4
  %42 = load ptr, ptr %8, align 8
  %43 = load i32, ptr %14, align 4
  %44 = mul nsw i32 6, %43
  %45 = add nsw i32 %44, 2
  %46 = call i32 @Vec_IntEntry(ptr noundef %42, i32 noundef %45)
  %47 = icmp eq i32 %46, 0
  br i1 %47, label %48, label %60

48:                                               ; preds = %31
  %49 = load ptr, ptr %8, align 8
  %50 = load i32, ptr %14, align 4
  %51 = call i32 @Acec_SignBit(ptr noundef %49, i32 noundef %50, i32 noundef 2)
  %52 = load i32, ptr %11, align 4
  %53 = xor i32 %52, %51
  store i32 %53, ptr %11, align 4
  %54 = load i32, ptr %11, align 4
  %55 = load i32, ptr %16, align 4
  %56 = xor i32 %55, %54
  store i32 %56, ptr %16, align 4
  %57 = load ptr, ptr %8, align 8
  %58 = load i32, ptr %14, align 4
  %59 = load i32, ptr %11, align 4
  call void @Acec_SignSetBit2(ptr noundef %57, i32 noundef %58, i32 noundef 2, i32 noundef %59)
  br label %60

60:                                               ; preds = %48, %31
  store i32 0, ptr %13, align 4
  br label %61

61:                                               ; preds = %94, %60
  %62 = load i32, ptr %13, align 4
  %63 = icmp slt i32 %62, 3
  br i1 %63, label %64, label %97

64:                                               ; preds = %61
  %65 = load ptr, ptr %8, align 8
  %66 = load i32, ptr %14, align 4
  %67 = mul nsw i32 6, %66
  %68 = load i32, ptr %13, align 4
  %69 = add nsw i32 %67, %68
  %70 = call i32 @Vec_IntEntry(ptr noundef %65, i32 noundef %69)
  store i32 %70, ptr %18, align 4
  %71 = load i32, ptr %18, align 4
  %72 = icmp eq i32 %71, 0
  br i1 %72, label %73, label %74

73:                                               ; preds = %64
  br label %94

74:                                               ; preds = %64
  %75 = load ptr, ptr %8, align 8
  %76 = load i32, ptr %14, align 4
  %77 = load i32, ptr %13, align 4
  %78 = call i32 @Acec_SignBit(ptr noundef %75, i32 noundef %76, i32 noundef %77)
  %79 = load i32, ptr %11, align 4
  %80 = xor i32 %78, %79
  store i32 %80, ptr %17, align 4
  %81 = load i32, ptr %17, align 4
  %82 = load i32, ptr %16, align 4
  %83 = xor i32 %82, %81
  store i32 %83, ptr %16, align 4
  %84 = load ptr, ptr %7, align 8
  %85 = load ptr, ptr %8, align 8
  %86 = load ptr, ptr %9, align 8
  %87 = load i32, ptr %18, align 4
  %88 = load i32, ptr %17, align 4
  %89 = load ptr, ptr %12, align 8
  call void @Acec_TreePhases_rec(ptr noundef %84, ptr noundef %85, ptr noundef %86, i32 noundef %87, i32 noundef %88, ptr noundef %89)
  %90 = load ptr, ptr %8, align 8
  %91 = load i32, ptr %14, align 4
  %92 = load i32, ptr %13, align 4
  %93 = load i32, ptr %17, align 4
  call void @Acec_SignSetBit2(ptr noundef %90, i32 noundef %91, i32 noundef %92, i32 noundef %93)
  br label %94

94:                                               ; preds = %74, %73
  %95 = load i32, ptr %13, align 4
  %96 = add nsw i32 %95, 1
  store i32 %96, ptr %13, align 4
  br label %61, !llvm.loop !34

97:                                               ; preds = %61
  %98 = load ptr, ptr %8, align 8
  %99 = load i32, ptr %14, align 4
  %100 = load i32, ptr %16, align 4
  call void @Acec_SignSetBit2(ptr noundef %98, i32 noundef %99, i32 noundef 3, i32 noundef %100)
  %101 = load ptr, ptr %8, align 8
  %102 = load i32, ptr %14, align 4
  %103 = load i32, ptr %11, align 4
  call void @Acec_SignSetBit2(ptr noundef %101, i32 noundef %102, i32 noundef 4, i32 noundef %103)
  br label %104

104:                                              ; preds = %97, %30, %24
  ret void
}