; Function Attrs: nofree nosync nounwind memory(readwrite, inaccessiblemem: none) uwtable
define void @Acec_TreePhases_rec(ptr noundef readnone captures(none) %0, ptr noundef readonly captures(none) %1, ptr noundef readonly captures(none) %2, i32 noundef %3, i32 noundef %4, ptr noundef readonly captures(none) %5) local_unnamed_addr #4 {
  %7 = getelementptr i8, ptr %2, i64 8
  %.val54 = load ptr, ptr %7, align 8
  %8 = sext i32 %3 to i64
  %9 = getelementptr inbounds i32, ptr %.val54, i64 %8
  %10 = load i32, ptr %9, align 4
  %11 = icmp eq i32 %10, -1
  br i1 %11, label %Acec_SignSetBit2.exit67, label %12

12:                                               ; preds = %6
  %13 = getelementptr i8, ptr %5, i64 8
  %.val55 = load ptr, ptr %13, align 8
  %14 = ashr i32 %10, 5
  %15 = sext i32 %14 to i64
  %16 = getelementptr inbounds i32, ptr %.val55, i64 %15
  %17 = load i32, ptr %16, align 4
  %18 = and i32 %10, 31
  %19 = shl nuw i32 1, %18
  %20 = and i32 %17, %19
  %.not = icmp eq i32 %20, 0
  br i1 %.not, label %21, label %Acec_SignSetBit2.exit67

21:                                               ; preds = %12
  %22 = or i32 %17, %19
  store i32 %22, ptr %16, align 4
  %23 = mul nsw i32 %10, 6
  %24 = getelementptr i8, ptr %1, i64 8
  %.val53 = load ptr, ptr %24, align 8
  %25 = sext i32 %23 to i64
  %26 = getelementptr i32, ptr %.val53, i64 %25
  %27 = getelementptr i8, ptr %26, i64 20
  %28 = load i32, ptr %27, align 4
  %29 = lshr i32 %28, 3
  %30 = and i32 %29, 1
  %31 = getelementptr i8, ptr %26, i64 8
  %32 = load i32, ptr %31, align 4
  %33 = icmp eq i32 %32, 0
  br i1 %33, label %34, label %Acec_SignSetBit2.exit

34:                                               ; preds = %21
  %35 = lshr i32 %28, 2
  %36 = and i32 %35, 1
  %37 = xor i32 %36, %4
  %38 = xor i32 %37, %30
  %.not.i = icmp eq i32 %4, %36
  br i1 %.not.i, label %Acec_SignSetBit2.exit, label %39

39:                                               ; preds = %34
  %40 = or i32 %28, 262144
  store i32 %40, ptr %27, align 4
  br label %Acec_SignSetBit2.exit

Acec_SignSetBit2.exit:                            ; preds = %39, %34, %21
  %.049 = phi i32 [ %30, %21 ], [ %38, %34 ], [ %38, %39 ]
  %.0 = phi i32 [ %4, %21 ], [ 0, %34 ], [ %37, %39 ]
  br label %41

41:                                               ; preds = %Acec_SignSetBit2.exit, %Acec_SignSetBit2.exit61
  %indvars.iv = phi i64 [ 0, %Acec_SignSetBit2.exit ], [ %indvars.iv.next, %Acec_SignSetBit2.exit61 ]
  %.168 = phi i32 [ %.049, %Acec_SignSetBit2.exit ], [ %.2, %Acec_SignSetBit2.exit61 ]
  %.val = load ptr, ptr %24, align 8
  %42 = getelementptr i32, ptr %.val, i64 %indvars.iv
  %43 = getelementptr i32, ptr %42, i64 %25
  %44 = load i32, ptr %43, align 4
  %45 = icmp eq i32 %44, 0
  br i1 %45, label %Acec_SignSetBit2.exit61, label %46

46:                                               ; preds = %41
  %47 = getelementptr i32, ptr %.val, i64 %25
  %48 = getelementptr i8, ptr %47, i64 20
  %49 = load i32, ptr %48, align 4
  %50 = trunc nuw nsw i64 %indvars.iv to i32
  %51 = lshr i32 %49, %50
  %52 = and i32 %51, 1
  %53 = xor i32 %52, %.0
  %54 = xor i32 %53, %.168
  tail call void @Acec_TreePhases_rec(ptr noundef %0, ptr noundef nonnull %1, ptr noundef %2, i32 noundef %44, i32 noundef %53, ptr noundef %5)
  %.not.i59 = icmp eq i32 %52, %.0
  br i1 %.not.i59, label %Acec_SignSetBit2.exit61, label %55

55:                                               ; preds = %46
  %56 = shl nuw nsw i32 65536, %50
  %.val.i60 = load ptr, ptr %24, align 8
  %57 = getelementptr i32, ptr %.val.i60, i64 %25
  %58 = getelementptr i8, ptr %57, i64 20
  %59 = load i32, ptr %58, align 4
  %60 = or i32 %59, %56
  store i32 %60, ptr %58, align 4
  br label %Acec_SignSetBit2.exit61

Acec_SignSetBit2.exit61:                          ; preds = %55, %46, %41
  %.2 = phi i32 [ %.168, %41 ], [ %54, %46 ], [ %54, %55 ]
  %indvars.iv.next = add nuw nsw i64 %indvars.iv, 1
  %exitcond.not = icmp eq i64 %indvars.iv.next, 3
  br i1 %exitcond.not, label %61, label %41, !llvm.loop !36

61:                                               ; preds = %Acec_SignSetBit2.exit61
  %.not.i62 = icmp eq i32 %.2, 0
  br i1 %.not.i62, label %Acec_SignSetBit2.exit64, label %62

62:                                               ; preds = %61
  %.val.i63 = load ptr, ptr %24, align 8
  %63 = getelementptr i32, ptr %.val.i63, i64 %25
  %64 = getelementptr i8, ptr %63, i64 20
  %65 = load i32, ptr %64, align 4
  %66 = or i32 %65, 524288
  store i32 %66, ptr %64, align 4
  br label %Acec_SignSetBit2.exit64

Acec_SignSetBit2.exit64:                          ; preds = %61, %62
  %.not.i65 = icmp eq i32 %.0, 0
  br i1 %.not.i65, label %Acec_SignSetBit2.exit67, label %67

67:                                               ; preds = %Acec_SignSetBit2.exit64
  %.val.i66 = load ptr, ptr %24, align 8
  %68 = getelementptr i32, ptr %.val.i66, i64 %25
  %69 = getelementptr i8, ptr %68, i64 20
  %70 = load i32, ptr %69, align 4
  %71 = or i32 %70, 1048576
  store i32 %71, ptr %69, align 4
  br label %Acec_SignSetBit2.exit67

Acec_SignSetBit2.exit67:                          ; preds = %67, %Acec_SignSetBit2.exit64, %12, %6
  ret void
}